; Function Attrs: nounwind uwtable
define dso_local noundef i32 @acct_gather_filesystem_init() local_unnamed_addr #0 {
  %1 = tail call i32 @pthread_mutex_lock(ptr noundef nonnull @g_context_lock) #6
  %.not = icmp eq i32 %1, 0
  br i1 %.not, label %4, label %2

2:                                                ; preds = %0
  %3 = tail call ptr @__errno_location() #7
  store i32 %1, ptr %3, align 4
  tail call void (ptr, ...) @fatal_abort(ptr noundef nonnull @.str.1, ptr noundef nonnull @__func__.acct_gather_filesystem_init) #8
  unreachable

4:                                                ; preds = %0
  %5 = load i32, ptr @plugin_inited, align 4
  %.not10 = icmp eq i32 %5, 0
  br i1 %.not10, label %6, label %10

6:                                                ; preds = %4
  %7 = load ptr, ptr getelementptr inbounds nuw (i8, ptr @slurm_conf, i64 120), align 8
  %.not11 = icmp eq ptr %7, null
  br i1 %.not11, label %.sink.split, label %8

8:                                                ; preds = %6
  %9 = tail call ptr @plugin_context_create(ptr noundef nonnull @.str, ptr noundef nonnull %7, ptr noundef nonnull @ops, ptr noundef nonnull @syms, i64 noundef 40) #6
  store ptr %9, ptr @g_context, align 8
  %.not12 = icmp eq ptr %9, null
  br i1 %.not12, label %.thread, label %.sink.split

.sink.split:                                      ; preds = %8, %6
  %.sink = phi i32 [ 1, %6 ], [ 2, %8 ]
  store i32 %.sink, ptr @plugin_inited, align 4
  br label %10

10:                                               ; preds = %.sink.split, %4
  %11 = tail call i32 @pthread_mutex_unlock(ptr noundef nonnull @g_context_lock) #6
  %.not13 = icmp eq i32 %11, 0
  br i1 %.not13, label %20, label %15

.thread:                                          ; preds = %8
  %12 = load ptr, ptr getelementptr inbounds nuw (i8, ptr @slurm_conf, i64 120), align 8
  %13 = tail call i32 (ptr, ...) @error(ptr noundef nonnull @.str.2, ptr noundef nonnull @.str, ptr noundef %12) #6
  store i32 0, ptr @plugin_inited, align 4
  %14 = tail call i32 @pthread_mutex_unlock(ptr noundef nonnull @g_context_lock) #6
  %.not1316 = icmp eq i32 %14, 0
  br i1 %.not1316, label %18, label %15

15:                                               ; preds = %.thread, %10
  %16 = phi i32 [ %14, %.thread ], [ %11, %10 ]
  %17 = tail call ptr @__errno_location() #7
  store i32 %16, ptr %17, align 4
  tail call void (ptr, ...) @fatal_abort(ptr noundef nonnull @.str.3, ptr noundef nonnull @__func__.acct_gather_filesystem_init) #8
  unreachable

18:                                               ; preds = %.thread
  %19 = load ptr, ptr getelementptr inbounds nuw (i8, ptr @slurm_conf, i64 120), align 8
  tail call void (ptr, ...) @fatal(ptr noundef nonnull @.str.4, ptr noundef %19) #8
  unreachable

20:                                               ; preds = %10
  ret i32 0
}